target datalayout = "e-m:e-p270:32:32-p271:32:32-p272:64:64-i64:64-i128:128-f80:128-n8:16:32:64-S128"
target triple = "x86_64-pc-linux-gnu"

%struct.UCMStates = type { [128 x [256 x i32]], [128 x i32], [128 x i32], i32, i32, i32, i32, i8, i8 }

@stderr = external global ptr, align 8
@.str.54 = private unnamed_addr constant [43 x i8] c"ucm error: the state table contains loops\0A\00", align 1

; Function Attrs: mustprogress nounwind uwtable
define internal noundef i32 @_ZL11sumUpStatesP9UCMStates(ptr noundef %0) #6 {
  %2 = alloca ptr, align 8
  %3 = alloca i32, align 4
  %4 = alloca i32, align 4
  %5 = alloca i32, align 4
  %6 = alloca i32, align 4
  %7 = alloca i32, align 4
  %8 = alloca i8, align 1
  %9 = alloca i32, align 4
  store ptr %0, ptr %2, align 8, !tbaa !3
  call void @llvm.lifetime.start.p0(i64 4, ptr %3) #10
  call void @llvm.lifetime.start.p0(i64 4, ptr %4) #10
  call void @llvm.lifetime.start.p0(i64 4, ptr %5) #10
  call void @llvm.lifetime.start.p0(i64 4, ptr %6) #10
  call void @llvm.lifetime.start.p0(i64 4, ptr %7) #10
  call void @llvm.lifetime.start.p0(i64 1, ptr %8) #10
  store i8 0, ptr %8, align 1, !tbaa !20
  %10 = load ptr, ptr %2, align 8, !tbaa !3
  %11 = getelementptr inbounds nuw %struct.UCMStates, ptr %10, i32 0, i32 3
  %12 = load i32, ptr %11, align 4, !tbaa !10
  store i32 %12, ptr %7, align 4, !tbaa !17
  br label %13

13:                                               ; preds = %171, %1
  %14 = load i8, ptr %8, align 1, !tbaa !20
  %15 = icmp ne i8 %14, 0
  br i1 %15, label %19, label %16

16:                                               ; preds = %13
  %17 = load i32, ptr %7, align 4, !tbaa !17
  %18 = icmp sge i32 %17, 0
  br label %19

19:                                               ; preds = %16, %13
  %20 = phi i1 [ false, %13 ], [ %18, %16 ]
  br i1 %20, label %21, label %174

21:                                               ; preds = %19
  store i8 1, ptr %8, align 1, !tbaa !20
  %22 = load ptr, ptr %2, align 8, !tbaa !3
  %23 = getelementptr inbounds nuw %struct.UCMStates, ptr %22, i32 0, i32 3
  %24 = load i32, ptr %23, align 4, !tbaa !10
  %25 = sub nsw i32 %24, 1
  store i32 %25, ptr %5, align 4, !tbaa !17
  br label %26

26:                                               ; preds = %167, %21
  %27 = load i32, ptr %5, align 4, !tbaa !17
  %28 = icmp sge i32 %27, 0
  br i1 %28, label %29, label %170

29:                                               ; preds = %26
  %30 = load ptr, ptr %2, align 8, !tbaa !3
  %31 = getelementptr inbounds nuw %struct.UCMStates, ptr %30, i32 0, i32 1
  %32 = load i32, ptr %5, align 4, !tbaa !17
  %33 = sext i32 %32 to i64
  %34 = getelementptr inbounds [128 x i32], ptr %31, i64 0, i64 %33
  %35 = load i32, ptr %34, align 4, !tbaa !17
  %36 = and i32 %35, 16
  %37 = icmp ne i32 %36, 0
  br i1 %37, label %166, label %38

38:                                               ; preds = %29
  store i8 0, ptr %8, align 1, !tbaa !20
  store i32 0, ptr %4, align 4, !tbaa !17
  store i32 0, ptr %6, align 4, !tbaa !17
  br label %39

39:                                               ; preds = %91, %38
  %40 = load i32, ptr %6, align 4, !tbaa !17
  %41 = icmp slt i32 %40, 256
  br i1 %41, label %42, label %94

42:                                               ; preds = %39
  %43 = load ptr, ptr %2, align 8, !tbaa !3
  %44 = getelementptr inbounds nuw %struct.UCMStates, ptr %43, i32 0, i32 0
  %45 = load i32, ptr %5, align 4, !tbaa !17
  %46 = sext i32 %45 to i64
  %47 = getelementptr inbounds [128 x [256 x i32]], ptr %44, i64 0, i64 %46
  %48 = load i32, ptr %6, align 4, !tbaa !17
  %49 = sext i32 %48 to i64
  %50 = getelementptr inbounds [256 x i32], ptr %47, i64 0, i64 %49
  %51 = load i32, ptr %50, align 4, !tbaa !17
  store i32 %51, ptr %3, align 4, !tbaa !17
  %52 = load i32, ptr %3, align 4, !tbaa !17
  %53 = icmp slt i32 %52, 0
  br i1 %53, label %54, label %90

54:                                               ; preds = %42
  %55 = load i32, ptr %3, align 4, !tbaa !17
  %56 = lshr i32 %55, 20
  %57 = and i32 %56, 15
  switch i32 %57, label %88 [
    i32 4, label %58
    i32 5, label %73
  ]

58:                                               ; preds = %54
  %59 = load i32, ptr %3, align 4, !tbaa !17
  %60 = and i32 %59, -1048576
  %61 = load i32, ptr %4, align 4, !tbaa !17
  %62 = or i32 %60, %61
  %63 = load ptr, ptr %2, align 8, !tbaa !3
  %64 = getelementptr inbounds nuw %struct.UCMStates, ptr %63, i32 0, i32 0
  %65 = load i32, ptr %5, align 4, !tbaa !17
  %66 = sext i32 %65 to i64
  %67 = getelementptr inbounds [128 x [256 x i32]], ptr %64, i64 0, i64 %66
  %68 = load i32, ptr %6, align 4, !tbaa !17
  %69 = sext i32 %68 to i64
  %70 = getelementptr inbounds [256 x i32], ptr %67, i64 0, i64 %69
  store i32 %62, ptr %70, align 4, !tbaa !17
  %71 = load i32, ptr %4, align 4, !tbaa !17
  %72 = add nsw i32 %71, 1
  store i32 %72, ptr %4, align 4, !tbaa !17
  br label %89

73:                                               ; preds = %54
  %74 = load i32, ptr %3, align 4, !tbaa !17
  %75 = and i32 %74, -1048576
  %76 = load i32, ptr %4, align 4, !tbaa !17
  %77 = or i32 %75, %76
  %78 = load ptr, ptr %2, align 8, !tbaa !3
  %79 = getelementptr inbounds nuw %struct.UCMStates, ptr %78, i32 0, i32 0
  %80 = load i32, ptr %5, align 4, !tbaa !17
  %81 = sext i32 %80 to i64
  %82 = getelementptr inbounds [128 x [256 x i32]], ptr %79, i64 0, i64 %81
  %83 = load i32, ptr %6, align 4, !tbaa !17
  %84 = sext i32 %83 to i64
  %85 = getelementptr inbounds [256 x i32], ptr %82, i64 0, i64 %84
  store i32 %77, ptr %85, align 4, !tbaa !17
  %86 = load i32, ptr %4, align 4, !tbaa !17
  %87 = add nsw i32 %86, 2
  store i32 %87, ptr %4, align 4, !tbaa !17
  br label %89

88:                                               ; preds = %54
  br label %89

89:                                               ; preds = %88, %73, %58
  br label %90

90:                                               ; preds = %89, %42
  br label %91

91:                                               ; preds = %90
  %92 = load i32, ptr %6, align 4, !tbaa !17
  %93 = add nsw i32 %92, 1
  store i32 %93, ptr %6, align 4, !tbaa !17
  br label %39, !llvm.loop !40

94:                                               ; preds = %39
  store i32 0, ptr %6, align 4, !tbaa !17
  br label %95

95:                                               ; preds = %145, %94
  %96 = load i32, ptr %6, align 4, !tbaa !17
  %97 = icmp slt i32 %96, 256
  br i1 %97, label %98, label %148

98:                                               ; preds = %95
  %99 = load ptr, ptr %2, align 8, !tbaa !3
  %100 = getelementptr inbounds nuw %struct.UCMStates, ptr %99, i32 0, i32 0
  %101 = load i32, ptr %5, align 4, !tbaa !17
  %102 = sext i32 %101 to i64
  %103 = getelementptr inbounds [128 x [256 x i32]], ptr %100, i64 0, i64 %102
  %104 = load i32, ptr %6, align 4, !tbaa !17
  %105 = sext i32 %104 to i64
  %106 = getelementptr inbounds [256 x i32], ptr %103, i64 0, i64 %105
  %107 = load i32, ptr %106, align 4, !tbaa !17
  store i32 %107, ptr %3, align 4, !tbaa !17
  %108 = load i32, ptr %3, align 4, !tbaa !17
  %109 = icmp sge i32 %108, 0
  br i1 %109, label %110, label %144

110:                                              ; preds = %98
  %111 = load ptr, ptr %2, align 8, !tbaa !3
  %112 = getelementptr inbounds nuw %struct.UCMStates, ptr %111, i32 0, i32 1
  %113 = load i32, ptr %3, align 4, !tbaa !17
  %114 = lshr i32 %113, 24
  %115 = zext i32 %114 to i64
  %116 = getelementptr inbounds nuw [128 x i32], ptr %112, i64 0, i64 %115
  %117 = load i32, ptr %116, align 4, !tbaa !17
  %118 = and i32 %117, 16
  %119 = icmp ne i32 %118, 0
  br i1 %119, label %120, label %142

120:                                              ; preds = %110
  %121 = load i32, ptr %3, align 4, !tbaa !17
  %122 = and i32 %121, -16777216
  %123 = load i32, ptr %4, align 4, !tbaa !17
  %124 = or i32 %122, %123
  %125 = load ptr, ptr %2, align 8, !tbaa !3
  %126 = getelementptr inbounds nuw %struct.UCMStates, ptr %125, i32 0, i32 0
  %127 = load i32, ptr %5, align 4, !tbaa !17
  %128 = sext i32 %127 to i64
  %129 = getelementptr inbounds [128 x [256 x i32]], ptr %126, i64 0, i64 %128
  %130 = load i32, ptr %6, align 4, !tbaa !17
  %131 = sext i32 %130 to i64
  %132 = getelementptr inbounds [256 x i32], ptr %129, i64 0, i64 %131
  store i32 %124, ptr %132, align 4, !tbaa !17
  %133 = load ptr, ptr %2, align 8, !tbaa !3
  %134 = getelementptr inbounds nuw %struct.UCMStates, ptr %133, i32 0, i32 2
  %135 = load i32, ptr %3, align 4, !tbaa !17
  %136 = lshr i32 %135, 24
  %137 = zext i32 %136 to i64
  %138 = getelementptr inbounds nuw [128 x i32], ptr %134, i64 0, i64 %137
  %139 = load i32, ptr %138, align 4, !tbaa !17
  %140 = load i32, ptr %4, align 4, !tbaa !17
  %141 = add i32 %140, %139
  store i32 %141, ptr %4, align 4, !tbaa !17
  br label %143

142:                                              ; preds = %110
  store i32 -1, ptr %4, align 4, !tbaa !17
  br label %148

143:                                              ; preds = %120
  br label %144

144:                                              ; preds = %143, %98
  br label %145

145:                                              ; preds = %144
  %146 = load i32, ptr %6, align 4, !tbaa !17
  %147 = add nsw i32 %146, 1
  store i32 %147, ptr %6, align 4, !tbaa !17
  br label %95, !llvm.loop !41

148:                                              ; preds = %142, %95
  %149 = load i32, ptr %4, align 4, !tbaa !17
  %150 = icmp ne i32 %149, -1
  br i1 %150, label %151, label %165

151:                                              ; preds = %148
  %152 = load i32, ptr %4, align 4, !tbaa !17
  %153 = load ptr, ptr %2, align 8, !tbaa !3
  %154 = getelementptr inbounds nuw %struct.UCMStates, ptr %153, i32 0, i32 2
  %155 = load i32, ptr %5, align 4, !tbaa !17
  %156 = sext i32 %155 to i64
  %157 = getelementptr inbounds [128 x i32], ptr %154, i64 0, i64 %156
  store i32 %152, ptr %157, align 4, !tbaa !17
  %158 = load ptr, ptr %2, align 8, !tbaa !3
  %159 = getelementptr inbounds nuw %struct.UCMStates, ptr %158, i32 0, i32 1
  %160 = load i32, ptr %5, align 4, !tbaa !17
  %161 = sext i32 %160 to i64
  %162 = getelementptr inbounds [128 x i32], ptr %159, i64 0, i64 %161
  %163 = load i32, ptr %162, align 4, !tbaa !17
  %164 = or i32 %163, 16
  store i32 %164, ptr %162, align 4, !tbaa !17
  br label %165

165:                                              ; preds = %151, %148
  br label %166

166:                                              ; preds = %165, %29
  br label %167

167:                                              ; preds = %166
  %168 = load i32, ptr %5, align 4, !tbaa !17
  %169 = add nsw i32 %168, -1
  store i32 %169, ptr %5, align 4, !tbaa !17
  br label %26, !llvm.loop !42

170:                                              ; preds = %26
  br label %171

171:                                              ; preds = %170
  %172 = load i32, ptr %7, align 4, !tbaa !17
  %173 = add nsw i32 %172, -1
  store i32 %173, ptr %7, align 4, !tbaa !17
  br label %13, !llvm.loop !43

174:                                              ; preds = %19
  %175 = load i8, ptr %8, align 1, !tbaa !20
  %176 = icmp ne i8 %175, 0
  br i1 %176, label %180, label %177

177:                                              ; preds = %174
  %178 = load ptr, ptr @stderr, align 8, !tbaa !13
  %179 = call i32 (ptr, ptr, ...) @fprintf(ptr noundef %178, ptr noundef @.str.54) #10
  call void @exit(i32 noundef 13) #11
  unreachable

180:                                              ; preds = %174
  %181 = load ptr, ptr %2, align 8, !tbaa !3
  %182 = getelementptr inbounds nuw %struct.UCMStates, ptr %181, i32 0, i32 2
  %183 = getelementptr inbounds [128 x i32], ptr %182, i64 0, i64 0
  %184 = load i32, ptr %183, align 4, !tbaa !17
  store i32 %184, ptr %4, align 4, !tbaa !17
  store i32 1, ptr %5, align 4, !tbaa !17
  br label %185

185:                                              ; preds = %243, %180
  %186 = load i32, ptr %5, align 4, !tbaa !17
  %187 = load ptr, ptr %2, align 8, !tbaa !3
  %188 = getelementptr inbounds nuw %struct.UCMStates, ptr %187, i32 0, i32 3
  %189 = load i32, ptr %188, align 4, !tbaa !10
  %190 = icmp slt i32 %186, %189
  br i1 %190, label %191, label %246

191:                                              ; preds = %185
  %192 = load ptr, ptr %2, align 8, !tbaa !3
  %193 = getelementptr inbounds nuw %struct.UCMStates, ptr %192, i32 0, i32 1
  %194 = load i32, ptr %5, align 4, !tbaa !17
  %195 = sext i32 %194 to i64
  %196 = getelementptr inbounds [128 x i32], ptr %193, i64 0, i64 %195
  %197 = load i32, ptr %196, align 4, !tbaa !17
  %198 = and i32 %197, 15
  %199 = icmp eq i32 %198, 1
  br i1 %199, label %200, label %242

200:                                              ; preds = %191
  call void @llvm.lifetime.start.p0(i64 4, ptr %9) #10
  %201 = load i32, ptr %4, align 4, !tbaa !17
  store i32 %201, ptr %9, align 4, !tbaa !17
  %202 = load ptr, ptr %2, align 8, !tbaa !3
  %203 = getelementptr inbounds nuw %struct.UCMStates, ptr %202, i32 0, i32 2
  %204 = load i32, ptr %5, align 4, !tbaa !17
  %205 = sext i32 %204 to i64
  %206 = getelementptr inbounds [128 x i32], ptr %203, i64 0, i64 %205
  %207 = load i32, ptr %206, align 4, !tbaa !17
  %208 = load i32, ptr %4, align 4, !tbaa !17
  %209 = add i32 %208, %207
  store i32 %209, ptr %4, align 4, !tbaa !17
  store i32 0, ptr %6, align 4, !tbaa !17
  br label %210

210:                                              ; preds = %238, %200
  %211 = load i32, ptr %6, align 4, !tbaa !17
  %212 = icmp slt i32 %211, 256
  br i1 %212, label %213, label %241

213:                                              ; preds = %210
  %214 = load ptr, ptr %2, align 8, !tbaa !3
  %215 = getelementptr inbounds nuw %struct.UCMStates, ptr %214, i32 0, i32 0
  %216 = load i32, ptr %5, align 4, !tbaa !17
  %217 = sext i32 %216 to i64
  %218 = getelementptr inbounds [128 x [256 x i32]], ptr %215, i64 0, i64 %217
  %219 = load i32, ptr %6, align 4, !tbaa !17
  %220 = sext i32 %219 to i64
  %221 = getelementptr inbounds [256 x i32], ptr %218, i64 0, i64 %220
  %222 = load i32, ptr %221, align 4, !tbaa !17
  store i32 %222, ptr %3, align 4, !tbaa !17
  %223 = load i32, ptr %3, align 4, !tbaa !17
  %224 = icmp sge i32 %223, 0
  br i1 %224, label %225, label %237

225:                                              ; preds = %213
  %226 = load i32, ptr %3, align 4, !tbaa !17
  %227 = load i32, ptr %9, align 4, !tbaa !17
  %228 = add nsw i32 %226, %227
  %229 = load ptr, ptr %2, align 8, !tbaa !3
  %230 = getelementptr inbounds nuw %struct.UCMStates, ptr %229, i32 0, i32 0
  %231 = load i32, ptr %5, align 4, !tbaa !17
  %232 = sext i32 %231 to i64
  %233 = getelementptr inbounds [128 x [256 x i32]], ptr %230, i64 0, i64 %232
  %234 = load i32, ptr %6, align 4, !tbaa !17
  %235 = sext i32 %234 to i64
  %236 = getelementptr inbounds [256 x i32], ptr %233, i64 0, i64 %235
  store i32 %228, ptr %236, align 4, !tbaa !17
  br label %237

237:                                              ; preds = %225, %213
  br label %238

238:                                              ; preds = %237
  %239 = load i32, ptr %6, align 4, !tbaa !17
  %240 = add nsw i32 %239, 1
  store i32 %240, ptr %6, align 4, !tbaa !17
  br label %210, !llvm.loop !44

241:                                              ; preds = %210
  call void @llvm.lifetime.end.p0(i64 4, ptr %9) #10
  br label %242

242:                                              ; preds = %241, %191
  br label %243

243:                                              ; preds = %242
  %244 = load i32, ptr %5, align 4, !tbaa !17
  %245 = add nsw i32 %244, 1
  store i32 %245, ptr %5, align 4, !tbaa !17
  br label %185, !llvm.loop !45

246:                                              ; preds = %185
  %247 = load i32, ptr %4, align 4, !tbaa !17
  %248 = add nsw i32 %247, 1
  %249 = and i32 %248, -2
  %250 = load ptr, ptr %2, align 8, !tbaa !3
  %251 = getelementptr inbounds nuw %struct.UCMStates, ptr %250, i32 0, i32 6
  store i32 %249, ptr %251, align 4, !tbaa !46
  call void @llvm.lifetime.end.p0(i64 1, ptr %8) #10
  call void @llvm.lifetime.end.p0(i64 4, ptr %7) #10
  call void @llvm.lifetime.end.p0(i64 4, ptr %6) #10
  call void @llvm.lifetime.end.p0(i64 4, ptr %5) #10
  call void @llvm.lifetime.end.p0(i64 4, ptr %4) #10
  call void @llvm.lifetime.end.p0(i64 4, ptr %3) #10
  ret i32 %249
}