; Function Attrs: mustprogress nofree nounwind uwtable
define internal fastcc noundef range(i32 0, -1) i32 @_ZL11sumUpStatesP9UCMStates(ptr noundef captures(none) %0) unnamed_addr #7 {
  %2 = getelementptr inbounds nuw i8, ptr %0, i64 132096
  %3 = load i32, ptr %2, align 4, !tbaa !3
  %4 = icmp sgt i32 %3, -1
  br i1 %4, label %.lr.ph101, label %.critedge

.lr.ph101:                                        ; preds = %1
  %5 = getelementptr inbounds nuw i8, ptr %0, i64 131072
  %6 = getelementptr inbounds nuw i8, ptr %0, i64 131584
  %.not127 = icmp eq i32 %3, 0
  br i1 %.not127, label %._crit_edge109.sink.split, label %.lr.ph101.split

.lr.ph101.split:                                  ; preds = %.lr.ph101, %._crit_edge
  %.07399 = phi i32 [ %47, %._crit_edge ], [ %3, %.lr.ph101 ]
  %7 = load i32, ptr %2, align 4, !tbaa !3
  %8 = icmp sgt i32 %7, 0
  br i1 %8, label %.lr.ph.preheader, label %._crit_edge109.sink.split

.lr.ph.preheader:                                 ; preds = %.lr.ph101.split
  %9 = zext nneg i32 %7 to i64
  br label %.lr.ph

.lr.ph:                                           ; preds = %.lr.ph.preheader, %.thread
  %indvars.iv117 = phi i64 [ %9, %.lr.ph.preheader ], [ %indvars.iv.next118, %.thread ]
  %.197 = phi i8 [ 1, %.lr.ph.preheader ], [ %.2, %.thread ]
  %indvars.iv.next118 = add nsw i64 %indvars.iv117, -1
  %10 = getelementptr inbounds nuw [128 x i32], ptr %5, i64 0, i64 %indvars.iv.next118
  %11 = load i32, ptr %10, align 4, !tbaa !11
  %12 = and i32 %11, 16
  %.not85 = icmp eq i32 %12, 0
  br i1 %.not85, label %.preheader90, label %.thread

.preheader90:                                     ; preds = %.lr.ph, %23
  %indvars.iv = phi i64 [ %indvars.iv.next, %23 ], [ 0, %.lr.ph ]
  %.07992 = phi i32 [ %.180, %23 ], [ 0, %.lr.ph ]
  %13 = getelementptr inbounds nuw [128 x [256 x i32]], ptr %0, i64 0, i64 %indvars.iv.next118, i64 %indvars.iv
  %14 = load i32, ptr %13, align 4, !tbaa !11
  %15 = icmp slt i32 %14, 0
  br i1 %15, label %16, label %23

16:                                               ; preds = %.preheader90
  %17 = lshr i32 %14, 20
  %18 = and i32 %17, 15
  switch i32 %18, label %23 [
    i32 4, label %.sink.split
    i32 5, label %19
  ]

19:                                               ; preds = %16
  br label %.sink.split

.sink.split:                                      ; preds = %16, %19
  %.sink = phi i32 [ 2, %19 ], [ 1, %16 ]
  %20 = and i32 %14, -1048576
  %21 = or i32 %20, %.07992
  store i32 %21, ptr %13, align 4, !tbaa !11
  %22 = add nsw i32 %.07992, %.sink
  br label %23

23:                                               ; preds = %.sink.split, %.preheader90, %16
  %.180 = phi i32 [ %.07992, %16 ], [ %.07992, %.preheader90 ], [ %22, %.sink.split ]
  %indvars.iv.next = add nuw nsw i64 %indvars.iv, 1
  %exitcond.not = icmp eq i64 %indvars.iv.next, 256
  br i1 %exitcond.not, label %.preheader, label %.preheader90, !llvm.loop !31

.preheader:                                       ; preds = %23, %39
  %indvars.iv113 = phi i64 [ %indvars.iv.next114, %39 ], [ 0, %23 ]
  %.28194 = phi i32 [ %.4, %39 ], [ %.180, %23 ]
  %24 = getelementptr inbounds nuw [128 x [256 x i32]], ptr %0, i64 0, i64 %indvars.iv.next118, i64 %indvars.iv113
  %25 = load i32, ptr %24, align 4, !tbaa !11
  %26 = icmp sgt i32 %25, -1
  br i1 %26, label %27, label %39

27:                                               ; preds = %.preheader
  %28 = lshr i32 %25, 24
  %29 = zext nneg i32 %28 to i64
  %30 = getelementptr inbounds nuw [128 x i32], ptr %5, i64 0, i64 %29
  %31 = load i32, ptr %30, align 4, !tbaa !11
  %32 = and i32 %31, 16
  %.not86 = icmp eq i32 %32, 0
  br i1 %.not86, label %.thread, label %33

33:                                               ; preds = %27
  %34 = and i32 %25, 2130706432
  %35 = or i32 %34, %.28194
  store i32 %35, ptr %24, align 4, !tbaa !11
  %36 = getelementptr inbounds nuw [128 x i32], ptr %6, i64 0, i64 %29
  %37 = load i32, ptr %36, align 4, !tbaa !11
  %38 = add i32 %37, %.28194
  br label %39

39:                                               ; preds = %.preheader, %33
  %.4 = phi i32 [ %38, %33 ], [ %.28194, %.preheader ]
  %indvars.iv.next114 = add nuw nsw i64 %indvars.iv113, 1
  %exitcond116.not = icmp eq i64 %indvars.iv.next114, 256
  br i1 %exitcond116.not, label %40, label %.preheader, !llvm.loop !32

40:                                               ; preds = %39
  %.not87 = icmp eq i32 %.4, -1
  br i1 %.not87, label %.thread, label %41

41:                                               ; preds = %40
  %42 = getelementptr inbounds nuw [128 x i32], ptr %6, i64 0, i64 %indvars.iv.next118
  store i32 %.4, ptr %42, align 4, !tbaa !11
  %43 = load i32, ptr %10, align 4, !tbaa !11
  %44 = or i32 %43, 16
  store i32 %44, ptr %10, align 4, !tbaa !11
  br label %.thread

.thread:                                          ; preds = %27, %.lr.ph, %41, %40
  %.2 = phi i8 [ %.197, %.lr.ph ], [ 0, %41 ], [ 0, %40 ], [ 0, %27 ]
  %45 = icmp sgt i64 %indvars.iv117, 1
  br i1 %45, label %.lr.ph, label %._crit_edge, !llvm.loop !33

._crit_edge:                                      ; preds = %.thread
  %46 = icmp eq i8 %.2, 0
  %47 = add nsw i32 %.07399, -1
  %48 = icmp sgt i32 %.07399, 0
  %49 = select i1 %46, i1 %48, i1 false
  br i1 %49, label %.lr.ph101.split, label %._crit_edge102, !llvm.loop !34

._crit_edge102:                                   ; preds = %._crit_edge
  br i1 %46, label %.critedge, label %.lr.ph101.split.us

.critedge:                                        ; preds = %1, %._crit_edge102
  %50 = load ptr, ptr @stderr, align 8, !tbaa !8
  %51 = tail call i64 @fwrite(ptr nonnull @.str.54, i64 42, i64 1, ptr %50) #19
  tail call void @exit(i32 noundef 13) #16
  unreachable

.lr.ph101.split.us:                               ; preds = %._crit_edge102
  %.pre.pr = load i32, ptr %2, align 4, !tbaa !3
  %52 = load i32, ptr %6, align 4, !tbaa !11
  %53 = icmp sgt i32 %.pre.pr, 1
  br i1 %53, label %.lr.ph108, label %._crit_edge109

.lr.ph108:                                        ; preds = %.lr.ph101.split.us, %.loopexit
  %54 = phi i32 [ %70, %.loopexit ], [ %.pre.pr, %.lr.ph101.split.us ]
  %indvars.iv123 = phi i64 [ %indvars.iv.next124, %.loopexit ], [ 1, %.lr.ph101.split.us ]
  %.5105 = phi i32 [ %.6, %.loopexit ], [ %52, %.lr.ph101.split.us ]
  %55 = getelementptr inbounds nuw [128 x i32], ptr %5, i64 0, i64 %indvars.iv123
  %56 = load i32, ptr %55, align 4, !tbaa !11
  %57 = and i32 %56, 15
  %58 = icmp eq i32 %57, 1
  br i1 %58, label %59, label %.loopexit

59:                                               ; preds = %.lr.ph108
  %60 = getelementptr inbounds nuw [128 x i32], ptr %6, i64 0, i64 %indvars.iv123
  %61 = load i32, ptr %60, align 4, !tbaa !11
  br label %62

62:                                               ; preds = %59, %68
  %indvars.iv119 = phi i64 [ 0, %59 ], [ %indvars.iv.next120, %68 ]
  %63 = getelementptr inbounds nuw [128 x [256 x i32]], ptr %0, i64 0, i64 %indvars.iv123, i64 %indvars.iv119
  %64 = load i32, ptr %63, align 4, !tbaa !11
  %65 = icmp sgt i32 %64, -1
  br i1 %65, label %66, label %68

66:                                               ; preds = %62
  %67 = add nsw i32 %64, %.5105
  store i32 %67, ptr %63, align 4, !tbaa !11
  br label %68

68:                                               ; preds = %62, %66
  %indvars.iv.next120 = add nuw nsw i64 %indvars.iv119, 1
  %exitcond122.not = icmp eq i64 %indvars.iv.next120, 256
  br i1 %exitcond122.not, label %.loopexit.loopexit, label %62, !llvm.loop !36

.loopexit.loopexit:                               ; preds = %68
  %69 = add i32 %61, %.5105
  %.pre126 = load i32, ptr %2, align 4, !tbaa !3
  br label %.loopexit

.loopexit:                                        ; preds = %.loopexit.loopexit, %.lr.ph108
  %70 = phi i32 [ %54, %.lr.ph108 ], [ %.pre126, %.loopexit.loopexit ]
  %.6 = phi i32 [ %.5105, %.lr.ph108 ], [ %69, %.loopexit.loopexit ]
  %indvars.iv.next124 = add nuw nsw i64 %indvars.iv123, 1
  %71 = sext i32 %70 to i64
  %72 = icmp slt i64 %indvars.iv.next124, %71
  br i1 %72, label %.lr.ph108, label %._crit_edge109, !llvm.loop !37

._crit_edge109.sink.split:                        ; preds = %.lr.ph101.split, %.lr.ph101
  %73 = load i32, ptr %6, align 4, !tbaa !11
  br label %._crit_edge109

._crit_edge109:                                   ; preds = %.loopexit, %._crit_edge109.sink.split, %.lr.ph101.split.us
  %.5.lcssa = phi i32 [ %52, %.lr.ph101.split.us ], [ %73, %._crit_edge109.sink.split ], [ %.6, %.loopexit ]
  %74 = add nsw i32 %.5.lcssa, 1
  %75 = and i32 %74, -2
  %76 = getelementptr inbounds nuw i8, ptr %0, i64 132108
  store i32 %75, ptr %76, align 4, !tbaa !38
  ret i32 %75
}